target datalayout = "e-m:e-p270:32:32-p271:32:32-p272:64:64-i64:64-i128:128-f80:128-n8:16:32:64-S128"
target triple = "x86_64-pc-linux-gnu"

%struct.ObjectAddress = type { i32, i32, i32 }
%struct.RoleSpec = type { i32, i32, ptr, i32 }
%struct.ForeignServer = type { i32, i32, i32, ptr, ptr, ptr, ptr }
%struct.DropUserMappingStmt = type { i32, ptr, ptr, i8 }

@.str.1 = private unnamed_addr constant [14 x i8] c"foreigncmds.c\00", align 1
@.str.6 = private unnamed_addr constant [27 x i8] c"server \22%s\22 does not exist\00", align 1
@.str.18 = private unnamed_addr constant [7 x i8] c"public\00", align 1
@.str.20 = private unnamed_addr constant [53 x i8] c"user mapping for \22%s\22 does not exist for server \22%s\22\00", align 1
@.str.22 = private unnamed_addr constant [35 x i8] c"role \22%s\22 does not exist, skipping\00", align 1
@__func__.RemoveUserMapping = private unnamed_addr constant [18 x i8] c"RemoveUserMapping\00", align 1
@.str.23 = private unnamed_addr constant [37 x i8] c"server \22%s\22 does not exist, skipping\00", align 1
@.str.24 = private unnamed_addr constant [63 x i8] c"user mapping for \22%s\22 does not exist for server \22%s\22, skipping\00", align 1

; Function Attrs: nounwind uwtable
define internal void @user_mapping_ddl_aclcheck(i32 noundef %0, i32 noundef %1, ptr noundef %2) #0 {
  %4 = alloca i32, align 4
  %5 = alloca i32, align 4
  %6 = alloca ptr, align 8
  %7 = alloca i32, align 4
  %8 = alloca i32, align 4
  store i32 %0, ptr %4, align 4
  store i32 %1, ptr %5, align 4
  store ptr %2, ptr %6, align 8
  call void @llvm.lifetime.start.p0(i64 4, ptr %7) #9
  %9 = call i32 @GetUserId()
  store i32 %9, ptr %7, align 4
  %10 = load i32, ptr %5, align 4
  %11 = load i32, ptr %7, align 4
  %12 = call zeroext i1 @object_ownercheck(i32 noundef 1417, i32 noundef %10, i32 noundef %11)
  br i1 %12, label %30, label %13

13:                                               ; preds = %3
  %14 = load i32, ptr %4, align 4
  %15 = load i32, ptr %7, align 4
  %16 = icmp eq i32 %14, %15
  br i1 %16, label %17, label %27

17:                                               ; preds = %13
  call void @llvm.lifetime.start.p0(i64 4, ptr %8) #9
  %18 = load i32, ptr %5, align 4
  %19 = load i32, ptr %7, align 4
  %20 = call i32 @object_aclcheck(i32 noundef 1417, i32 noundef %18, i32 noundef %19, i64 noundef 256)
  store i32 %20, ptr %8, align 4
  %21 = load i32, ptr %8, align 4
  %22 = icmp ne i32 %21, 0
  br i1 %22, label %23, label %26

23:                                               ; preds = %17
  %24 = load i32, ptr %8, align 4
  %25 = load ptr, ptr %6, align 8
  call void @aclcheck_error(i32 noundef %24, i32 noundef 17, ptr noundef %25)
  br label %26

26:                                               ; preds = %23, %17
  call void @llvm.lifetime.end.p0(i64 4, ptr %8) #9
  br label %29

27:                                               ; preds = %13
  %28 = load ptr, ptr %6, align 8
  call void @aclcheck_error(i32 noundef 2, i32 noundef 17, ptr noundef %28)
  br label %29

29:                                               ; preds = %27, %26
  br label %30

30:                                               ; preds = %29, %3
  call void @llvm.lifetime.end.p0(i64 4, ptr %7) #9
  ret void
}

; Function Attrs: inlinehint nounwind uwtable
define internal i64 @ObjectIdGetDatum(i32 noundef %0) #6 {
  %2 = alloca i32, align 4
  store i32 %0, ptr %2, align 4
  %3 = load i32, ptr %2, align 4
  %4 = zext i32 %3 to i64
  ret i64 %4
}

; Function Attrs: nounwind uwtable
define dso_local i32 @RemoveUserMapping(ptr noundef %0) #0 {
  %2 = alloca i32, align 4
  %3 = alloca ptr, align 8
  %4 = alloca %struct.ObjectAddress, align 4
  %5 = alloca i32, align 4
  %6 = alloca i32, align 4
  %7 = alloca ptr, align 8
  %8 = alloca ptr, align 8
  %9 = alloca i32, align 4
  store ptr %0, ptr %3, align 8
  call void @llvm.lifetime.start.p0(i64 12, ptr %4) #9
  call void @llvm.lifetime.start.p0(i64 4, ptr %5) #9
  call void @llvm.lifetime.start.p0(i64 4, ptr %6) #9
  call void @llvm.lifetime.start.p0(i64 8, ptr %7) #9
  call void @llvm.lifetime.start.p0(i64 8, ptr %8) #9
  %10 = load ptr, ptr %3, align 8
  %11 = getelementptr inbounds nuw %struct.DropUserMappingStmt, ptr %10, i32 0, i32 1
  %12 = load ptr, ptr %11, align 8
  store ptr %12, ptr %8, align 8
  %13 = load ptr, ptr %8, align 8
  %14 = getelementptr inbounds nuw %struct.RoleSpec, ptr %13, i32 0, i32 1
  %15 = load i32, ptr %14, align 4
  %16 = icmp eq i32 %15, 4
  br i1 %16, label %17, label %18

17:                                               ; preds = %1
  store i32 0, ptr %5, align 4
  br label %44

18:                                               ; preds = %1
  %19 = load ptr, ptr %3, align 8
  %20 = getelementptr inbounds nuw %struct.DropUserMappingStmt, ptr %19, i32 0, i32 1
  %21 = load ptr, ptr %20, align 8
  %22 = load ptr, ptr %3, align 8
  %23 = getelementptr inbounds nuw %struct.DropUserMappingStmt, ptr %22, i32 0, i32 3
  %24 = load i8, ptr %23, align 8, !range !8, !noundef !9
  %25 = trunc i8 %24 to i1
  %26 = call i32 @get_rolespec_oid(ptr noundef %21, i1 noundef zeroext %25)
  store i32 %26, ptr %5, align 4
  %27 = load i32, ptr %5, align 4
  %28 = icmp ne i32 %27, 0
  br i1 %28, label %43, label %29

29:                                               ; preds = %18
  br label %30

30:                                               ; preds = %29
  br i1 false, label %31, label %33

31:                                               ; preds = %30
  %32 = call zeroext i1 @errstart_cold(i32 noundef 18, ptr noundef null) #11
  br i1 %32, label %35, label %40

33:                                               ; preds = %30
  %34 = call zeroext i1 @errstart(i32 noundef 18, ptr noundef null)
  br i1 %34, label %35, label %40

35:                                               ; preds = %33, %31
  %36 = load ptr, ptr %8, align 8
  %37 = getelementptr inbounds nuw %struct.RoleSpec, ptr %36, i32 0, i32 2
  %38 = load ptr, ptr %37, align 8
  %39 = call i32 (ptr, ...) @errmsg_internal(ptr noundef @.str.22, ptr noundef %38)
  call void @errfinish(ptr noundef @.str.1, i32 noundef 1344, ptr noundef @__func__.RemoveUserMapping)
  br label %40

40:                                               ; preds = %35, %33, %31
  br label %41

41:                                               ; preds = %40
  br label %42

42:                                               ; preds = %41
  store i32 0, ptr %2, align 4
  store i32 1, ptr %9, align 4
  br label %158

43:                                               ; preds = %18
  br label %44

44:                                               ; preds = %43, %17
  %45 = load ptr, ptr %3, align 8
  %46 = getelementptr inbounds nuw %struct.DropUserMappingStmt, ptr %45, i32 0, i32 2
  %47 = load ptr, ptr %46, align 8
  %48 = call ptr @GetForeignServerByName(ptr noundef %47, i1 noundef zeroext true)
  store ptr %48, ptr %7, align 8
  %49 = load ptr, ptr %7, align 8
  %50 = icmp ne ptr %49, null
  br i1 %50, label %85, label %51

51:                                               ; preds = %44
  %52 = load ptr, ptr %3, align 8
  %53 = getelementptr inbounds nuw %struct.DropUserMappingStmt, ptr %52, i32 0, i32 3
  %54 = load i8, ptr %53, align 8, !range !8, !noundef !9
  %55 = trunc i8 %54 to i1
  br i1 %55, label %71, label %56

56:                                               ; preds = %51
  br label %57

57:                                               ; preds = %56
  br i1 true, label %58, label %60

58:                                               ; preds = %57
  %59 = call zeroext i1 @errstart_cold(i32 noundef 21, ptr noundef null) #11
  br i1 %59, label %62, label %68

60:                                               ; preds = %57
  %61 = call zeroext i1 @errstart(i32 noundef 21, ptr noundef null)
  br i1 %61, label %62, label %68

62:                                               ; preds = %60, %58
  %63 = call i32 @errcode(i32 noundef 67137668)
  %64 = load ptr, ptr %3, align 8
  %65 = getelementptr inbounds nuw %struct.DropUserMappingStmt, ptr %64, i32 0, i32 2
  %66 = load ptr, ptr %65, align 8
  %67 = call i32 (ptr, ...) @errmsg(ptr noundef @.str.6, ptr noundef %66)
  call void @errfinish(ptr noundef @.str.1, i32 noundef 1357, ptr noundef @__func__.RemoveUserMapping)
  br label %68

68:                                               ; preds = %62, %60, %58
  unreachable

69:                                               ; No predecessors!
  br label %70

70:                                               ; preds = %69
  br label %71

71:                                               ; preds = %70, %51
  br label %72

72:                                               ; preds = %71
  br i1 false, label %73, label %75

73:                                               ; preds = %72
  %74 = call zeroext i1 @errstart_cold(i32 noundef 18, ptr noundef null) #11
  br i1 %74, label %77, label %82

75:                                               ; preds = %72
  %76 = call zeroext i1 @errstart(i32 noundef 18, ptr noundef null)
  br i1 %76, label %77, label %82

77:                                               ; preds = %75, %73
  %78 = load ptr, ptr %3, align 8
  %79 = getelementptr inbounds nuw %struct.DropUserMappingStmt, ptr %78, i32 0, i32 2
  %80 = load ptr, ptr %79, align 8
  %81 = call i32 (ptr, ...) @errmsg(ptr noundef @.str.23, ptr noundef %80)
  call void @errfinish(ptr noundef @.str.1, i32 noundef 1361, ptr noundef @__func__.RemoveUserMapping)
  br label %82

82:                                               ; preds = %77, %75, %73
  br label %83

83:                                               ; preds = %82
  br label %84

84:                                               ; preds = %83
  store i32 0, ptr %2, align 4
  store i32 1, ptr %9, align 4
  br label %158

85:                                               ; preds = %44
  %86 = load i32, ptr %5, align 4
  %87 = call i64 @ObjectIdGetDatum(i32 noundef %86)
  %88 = load ptr, ptr %7, align 8
  %89 = getelementptr inbounds nuw %struct.ForeignServer, ptr %88, i32 0, i32 0
  %90 = load i32, ptr %89, align 8
  %91 = call i64 @ObjectIdGetDatum(i32 noundef %90)
  %92 = call i32 @GetSysCacheOid(i32 noundef 84, i16 noundef signext 1, i64 noundef %87, i64 noundef %91, i64 noundef 0, i64 noundef 0)
  store i32 %92, ptr %6, align 4
  %93 = load i32, ptr %6, align 4
  %94 = icmp ne i32 %93, 0
  br i1 %94, label %145, label %95

95:                                               ; preds = %85
  %96 = load ptr, ptr %3, align 8
  %97 = getelementptr inbounds nuw %struct.DropUserMappingStmt, ptr %96, i32 0, i32 3
  %98 = load i8, ptr %97, align 8, !range !8, !noundef !9
  %99 = trunc i8 %98 to i1
  br i1 %99, label %123, label %100

100:                                              ; preds = %95
  br label %101

101:                                              ; preds = %100
  br i1 true, label %102, label %104

102:                                              ; preds = %101
  %103 = call zeroext i1 @errstart_cold(i32 noundef 21, ptr noundef null) #11
  br i1 %103, label %106, label %120

104:                                              ; preds = %101
  %105 = call zeroext i1 @errstart(i32 noundef 21, ptr noundef null)
  br i1 %105, label %106, label %120

106:                                              ; preds = %104, %102
  %107 = call i32 @errcode(i32 noundef 67137668)
  %108 = load i32, ptr %5, align 4
  %109 = icmp ne i32 %108, 0
  br i1 %109, label %110, label %113

110:                                              ; preds = %106
  %111 = load i32, ptr %5, align 4
  %112 = call ptr @GetUserNameFromId(i32 noundef %111, i1 noundef zeroext false)
  br label %114

113:                                              ; preds = %106
  br label %114

114:                                              ; preds = %113, %110
  %115 = phi ptr [ %112, %110 ], [ @.str.18, %113 ]
  %116 = load ptr, ptr %3, align 8
  %117 = getelementptr inbounds nuw %struct.DropUserMappingStmt, ptr %116, i32 0, i32 2
  %118 = load ptr, ptr %117, align 8
  %119 = call i32 (ptr, ...) @errmsg(ptr noundef @.str.20, ptr noundef %115, ptr noundef %118)
  call void @errfinish(ptr noundef @.str.1, i32 noundef 1375, ptr noundef @__func__.RemoveUserMapping)
  br label %120

120:                                              ; preds = %114, %104, %102
  unreachable

121:                                              ; No predecessors!
  br label %122

122:                                              ; preds = %121
  br label %123

123:                                              ; preds = %122, %95
  br label %124

124:                                              ; preds = %123
  br i1 false, label %125, label %127

125:                                              ; preds = %124
  %126 = call zeroext i1 @errstart_cold(i32 noundef 18, ptr noundef null) #11
  br i1 %126, label %129, label %142

127:                                              ; preds = %124
  %128 = call zeroext i1 @errstart(i32 noundef 18, ptr noundef null)
  br i1 %128, label %129, label %142

129:                                              ; preds = %127, %125
  %130 = load i32, ptr %5, align 4
  %131 = icmp ne i32 %130, 0
  br i1 %131, label %132, label %135

132:                                              ; preds = %129
  %133 = load i32, ptr %5, align 4
  %134 = call ptr @GetUserNameFromId(i32 noundef %133, i1 noundef zeroext false)
  br label %136

135:                                              ; preds = %129
  br label %136

136:                                              ; preds = %135, %132
  %137 = phi ptr [ %134, %132 ], [ @.str.18, %135 ]
  %138 = load ptr, ptr %3, align 8
  %139 = getelementptr inbounds nuw %struct.DropUserMappingStmt, ptr %138, i32 0, i32 2
  %140 = load ptr, ptr %139, align 8
  %141 = call i32 (ptr, ...) @errmsg(ptr noundef @.str.24, ptr noundef %137, ptr noundef %140)
  call void @errfinish(ptr noundef @.str.1, i32 noundef 1380, ptr noundef @__func__.RemoveUserMapping)
  br label %142

142:                                              ; preds = %136, %127, %125
  br label %143

143:                                              ; preds = %142
  br label %144

144:                                              ; preds = %143
  store i32 0, ptr %2, align 4
  store i32 1, ptr %9, align 4
  br label %158

145:                                              ; preds = %85
  %146 = load i32, ptr %5, align 4
  %147 = load ptr, ptr %7, align 8
  %148 = getelementptr inbounds nuw %struct.ForeignServer, ptr %147, i32 0, i32 0
  %149 = load i32, ptr %148, align 8
  %150 = load ptr, ptr %7, align 8
  %151 = getelementptr inbounds nuw %struct.ForeignServer, ptr %150, i32 0, i32 3
  %152 = load ptr, ptr %151, align 8
  call void @user_mapping_ddl_aclcheck(i32 noundef %146, i32 noundef %149, ptr noundef %152)
  %153 = getelementptr inbounds nuw %struct.ObjectAddress, ptr %4, i32 0, i32 0
  store i32 1418, ptr %153, align 4
  %154 = load i32, ptr %6, align 4
  %155 = getelementptr inbounds nuw %struct.ObjectAddress, ptr %4, i32 0, i32 1
  store i32 %154, ptr %155, align 4
  %156 = getelementptr inbounds nuw %struct.ObjectAddress, ptr %4, i32 0, i32 2
  store i32 0, ptr %156, align 4
  call void @performDeletion(ptr noundef %4, i32 noundef 1, i32 noundef 0)
  %157 = load i32, ptr %6, align 4
  store i32 %157, ptr %2, align 4
  store i32 1, ptr %9, align 4
  br label %158

158:                                              ; preds = %145, %144, %84, %42
  call void @llvm.lifetime.end.p0(i64 8, ptr %8) #9
  call void @llvm.lifetime.end.p0(i64 8, ptr %7) #9
  call void @llvm.lifetime.end.p0(i64 4, ptr %6) #9
  call void @llvm.lifetime.end.p0(i64 4, ptr %5) #9
  call void @llvm.lifetime.end.p0(i64 12, ptr %4) #9
  %159 = load i32, ptr %2, align 4
  ret i32 %159
}