; Function Attrs: nounwind uwtable
define dso_local i32 @RemoveUserMapping(ptr noundef readonly captures(none) %0) local_unnamed_addr #0 {
  %2 = alloca %struct.ObjectAddress, align 4
  call void @llvm.lifetime.start.p0(i64 12, ptr nonnull %2) #9
  %3 = getelementptr inbounds nuw i8, ptr %0, i64 8
  %4 = load ptr, ptr %3, align 8
  %5 = getelementptr inbounds nuw i8, ptr %4, i64 4
  %6 = load i32, ptr %5, align 4
  %7 = icmp eq i32 %6, 4
  br i1 %7, label %19, label %8

8:                                                ; preds = %1
  %9 = getelementptr inbounds nuw i8, ptr %0, i64 24
  %10 = load i8, ptr %9, align 8, !range !4, !noundef !5
  %11 = trunc nuw i8 %10 to i1
  %12 = tail call i32 @get_rolespec_oid(ptr noundef nonnull %4, i1 noundef zeroext %11) #9
  %.not = icmp eq i32 %12, 0
  br i1 %.not, label %13, label %19

13:                                               ; preds = %8
  %14 = tail call zeroext i1 @errstart(i32 noundef 18, ptr noundef null) #9
  br i1 %14, label %15, label %76

15:                                               ; preds = %13
  %16 = getelementptr inbounds nuw i8, ptr %4, i64 8
  %17 = load ptr, ptr %16, align 8
  %18 = tail call i32 (ptr, ...) @errmsg_internal(ptr noundef nonnull @.str.22, ptr noundef %17) #9
  tail call void @errfinish(ptr noundef nonnull @.str.1, i32 noundef 1344, ptr noundef nonnull @__func__.RemoveUserMapping) #9
  br label %76

19:                                               ; preds = %1, %8
  %.026 = phi i32 [ %12, %8 ], [ 0, %1 ]
  %20 = getelementptr inbounds nuw i8, ptr %0, i64 16
  %21 = load ptr, ptr %20, align 8
  %22 = tail call ptr @GetForeignServerByName(ptr noundef %21, i1 noundef zeroext true) #9
  %.not30 = icmp eq ptr %22, null
  br i1 %.not30, label %23, label %37

23:                                               ; preds = %19
  %24 = getelementptr inbounds nuw i8, ptr %0, i64 24
  %25 = load i8, ptr %24, align 8, !range !4, !noundef !5
  %26 = trunc nuw i8 %25 to i1
  br i1 %26, label %32, label %27

27:                                               ; preds = %23
  %28 = tail call zeroext i1 @errstart_cold(i32 noundef 21, ptr noundef null) #11
  tail call void @llvm.assume(i1 %28)
  %29 = tail call i32 @errcode(i32 noundef 67137668) #9
  %30 = load ptr, ptr %20, align 8
  %31 = tail call i32 (ptr, ...) @errmsg(ptr noundef nonnull @.str.6, ptr noundef %30) #9
  tail call void @errfinish(ptr noundef nonnull @.str.1, i32 noundef 1357, ptr noundef nonnull @__func__.RemoveUserMapping) #9
  unreachable

32:                                               ; preds = %23
  %33 = tail call zeroext i1 @errstart(i32 noundef 18, ptr noundef null) #9
  br i1 %33, label %34, label %76

34:                                               ; preds = %32
  %35 = load ptr, ptr %20, align 8
  %36 = tail call i32 (ptr, ...) @errmsg(ptr noundef nonnull @.str.23, ptr noundef %35) #9
  tail call void @errfinish(ptr noundef nonnull @.str.1, i32 noundef 1361, ptr noundef nonnull @__func__.RemoveUserMapping) #9
  br label %76

37:                                               ; preds = %19
  %38 = zext i32 %.026 to i64
  %39 = load i32, ptr %22, align 8
  %40 = zext i32 %39 to i64
  %41 = tail call i32 @GetSysCacheOid(i32 noundef 84, i16 noundef signext 1, i64 noundef %38, i64 noundef %40, i64 noundef 0, i64 noundef 0) #9
  %.not31 = icmp eq i32 %41, 0
  br i1 %.not31, label %42, label %64

42:                                               ; preds = %37
  %43 = getelementptr inbounds nuw i8, ptr %0, i64 24
  %44 = load i8, ptr %43, align 8, !range !4, !noundef !5
  %45 = trunc nuw i8 %44 to i1
  br i1 %45, label %55, label %46

46:                                               ; preds = %42
  %47 = tail call zeroext i1 @errstart_cold(i32 noundef 21, ptr noundef null) #11
  tail call void @llvm.assume(i1 %47)
  %48 = tail call i32 @errcode(i32 noundef 67137668) #9
  %.not32 = icmp eq i32 %.026, 0
  br i1 %.not32, label %51, label %49

49:                                               ; preds = %46
  %50 = tail call ptr @GetUserNameFromId(i32 noundef %.026, i1 noundef zeroext false) #9
  br label %51

51:                                               ; preds = %46, %49
  %52 = phi ptr [ %50, %49 ], [ @.str.18, %46 ]
  %53 = load ptr, ptr %20, align 8
  %54 = tail call i32 (ptr, ...) @errmsg(ptr noundef nonnull @.str.20, ptr noundef %52, ptr noundef %53) #9
  tail call void @errfinish(ptr noundef nonnull @.str.1, i32 noundef 1375, ptr noundef nonnull @__func__.RemoveUserMapping) #9
  unreachable

55:                                               ; preds = %42
  %56 = tail call zeroext i1 @errstart(i32 noundef 18, ptr noundef null) #9
  br i1 %56, label %57, label %76

57:                                               ; preds = %55
  %.not33 = icmp eq i32 %.026, 0
  br i1 %.not33, label %60, label %58

58:                                               ; preds = %57
  %59 = tail call ptr @GetUserNameFromId(i32 noundef %.026, i1 noundef zeroext false) #9
  br label %60

60:                                               ; preds = %57, %58
  %61 = phi ptr [ %59, %58 ], [ @.str.18, %57 ]
  %62 = load ptr, ptr %20, align 8
  %63 = tail call i32 (ptr, ...) @errmsg(ptr noundef nonnull @.str.24, ptr noundef %61, ptr noundef %62) #9
  tail call void @errfinish(ptr noundef nonnull @.str.1, i32 noundef 1380, ptr noundef nonnull @__func__.RemoveUserMapping) #9
  br label %76

64:                                               ; preds = %37
  %65 = load i32, ptr %22, align 8
  %66 = getelementptr inbounds nuw i8, ptr %22, i64 16
  %67 = load ptr, ptr %66, align 8
  %68 = tail call i32 @GetUserId() #9
  %69 = tail call zeroext i1 @object_ownercheck(i32 noundef 1417, i32 noundef %65, i32 noundef %68) #9
  br i1 %69, label %user_mapping_ddl_aclcheck.exit, label %70

70:                                               ; preds = %64
  %71 = icmp eq i32 %.026, %68
  br i1 %71, label %72, label %.sink.split.i

72:                                               ; preds = %70
  %73 = tail call i32 @object_aclcheck(i32 noundef 1417, i32 noundef %65, i32 noundef %.026, i64 noundef 256) #9
  %.not.i = icmp eq i32 %73, 0
  br i1 %.not.i, label %user_mapping_ddl_aclcheck.exit, label %.sink.split.i

.sink.split.i:                                    ; preds = %72, %70
  %.sink.i = phi i32 [ %73, %72 ], [ 2, %70 ]
  tail call void @aclcheck_error(i32 noundef %.sink.i, i32 noundef 17, ptr noundef %67) #9
  br label %user_mapping_ddl_aclcheck.exit

user_mapping_ddl_aclcheck.exit:                   ; preds = %64, %72, %.sink.split.i
  store i32 1418, ptr %2, align 4
  %74 = getelementptr inbounds nuw i8, ptr %2, i64 4
  store i32 %41, ptr %74, align 4
  %75 = getelementptr inbounds nuw i8, ptr %2, i64 8
  store i32 0, ptr %75, align 4
  call void @performDeletion(ptr noundef nonnull %2, i32 noundef 1, i32 noundef 0) #9
  br label %76

76:                                               ; preds = %55, %60, %32, %34, %13, %15, %user_mapping_ddl_aclcheck.exit
  %.0 = phi i32 [ %41, %user_mapping_ddl_aclcheck.exit ], [ 0, %15 ], [ 0, %13 ], [ 0, %34 ], [ 0, %32 ], [ 0, %60 ], [ 0, %55 ]
  call void @llvm.lifetime.end.p0(i64 12, ptr nonnull %2) #9
  ret i32 %.0
}